; Function Attrs: mustprogress uwtable
define hidden void @_ZN4cvc58internal6theory2uf20CardinalityExtension29initializeCombinedCardinalityEv(ptr noundef nonnull align 8 dereferenceable(648) %0) local_unnamed_addr #4 align 2 {
  %2 = getelementptr inbounds nuw i8, ptr %0, i64 216
  %3 = load ptr, ptr %2, align 8, !tbaa !643
  %.not = icmp eq ptr %3, null
  br i1 %.not, label %23, label %4

4:                                                ; preds = %1
  %5 = getelementptr inbounds nuw i8, ptr %0, i64 224
  %6 = getelementptr inbounds nuw i8, ptr %0, i64 264
  %7 = load i8, ptr %6, align 8, !tbaa !140, !range !141, !noundef !142
  %8 = trunc nuw i8 %7 to i1
  br i1 %8, label %23, label %9

9:                                                ; preds = %4
  %10 = getelementptr inbounds nuw i8, ptr %0, i64 232
  %11 = load ptr, ptr %10, align 8, !tbaa !41
  %12 = load ptr, ptr %11, align 8, !tbaa !42
  %13 = getelementptr inbounds nuw i8, ptr %12, i64 16
  %14 = load ptr, ptr %13, align 8, !tbaa !49
  %15 = getelementptr inbounds i8, ptr %14, i64 -8
  %16 = load ptr, ptr %15, align 8, !tbaa !51
  %17 = icmp eq ptr %11, %16
  br i1 %17, label %_ZN4cvc57context3CDOIbEaSERKb.exit, label %18

18:                                               ; preds = %9
  tail call void @_ZN4cvc57context10ContextObj6updateEv(ptr noundef nonnull align 8 dereferenceable(41) %5)
  br label %_ZN4cvc57context3CDOIbEaSERKb.exit

_ZN4cvc57context3CDOIbEaSERKb.exit:               ; preds = %9, %18
  store i8 1, ptr %6, align 8, !tbaa !62
  %19 = getelementptr inbounds nuw i8, ptr %0, i64 56
  %20 = load ptr, ptr %19, align 8, !tbaa !668
  %21 = tail call noundef ptr @_ZN4cvc58internal6theory22TheoryInferenceManager18getDecisionManagerEv(ptr noundef nonnull align 8 dereferenceable(240) %20)
  %22 = load ptr, ptr %2, align 8, !tbaa !643
  tail call void @_ZN4cvc58internal6theory15DecisionManager16registerStrategyENS2_10StrategyIdEPNS1_16DecisionStrategyENS2_13StrategyScopeE(ptr noundef nonnull align 8 dereferenceable(184) %21, i32 noundef 4, ptr noundef %22, i32 noundef 0)
  br label %23

23:                                               ; preds = %_ZN4cvc57context3CDOIbEaSERKb.exit, %4, %1
  ret void
}